target datalayout = "e-m:e-p270:32:32-p271:32:32-p272:64:64-i64:64-i128:128-f80:128-n8:16:32:64-S128"
target triple = "x86_64-pc-linux-gnu"

%"class.tbb::detail::r1::basic_tls" = type { i32 }
%"class.tbb::detail::r1::thread_data" = type { %"struct.tbb::detail::d1::intrusive_list_node", i16, i8, i8, ptr, ptr, ptr, ptr, %"class.tbb::detail::r1::mail_inbox", %"class.tbb::detail::r1::FastRandom", ptr, ptr, ptr, i32, ptr, %"class.tbb::detail::d1::task_group_context" }
%"struct.tbb::detail::d1::intrusive_list_node" = type { ptr, ptr }
%"class.tbb::detail::r1::mail_inbox" = type { ptr }
%"class.tbb::detail::r1::FastRandom" = type { i32, i32 }
%"class.tbb::detail::d1::task_group_context" = type { i64, %"struct.std::atomic.4", i8, %"struct.tbb::detail::d1::task_group_context::context_traits", %"struct.std::atomic.6", %"struct.std::atomic.8", %union.anon, ptr, %"struct.tbb::detail::d1::intrusive_list_node", %"struct.std::atomic.9", ptr, i64, [56 x i8] }
%"struct.std::atomic.4" = type { %"struct.std::__atomic_base.5" }
%"struct.std::__atomic_base.5" = type { i32 }
%"struct.tbb::detail::d1::task_group_context::context_traits" = type { i8 }
%"struct.std::atomic.6" = type { %"struct.std::__atomic_base.7" }
%"struct.std::__atomic_base.7" = type { i8 }
%"struct.std::atomic.8" = type { i8 }
%union.anon = type { ptr }
%"struct.std::atomic.9" = type { %"struct.std::__atomic_base.10" }
%"struct.std::__atomic_base.10" = type { ptr }
%"class.tbb::detail::d1::task_arena_base" = type { i64, %"struct.std::atomic.37", %"struct.std::atomic.38", i32, i32, i32, i32, i32, i32 }
%"struct.std::atomic.37" = type { i32 }
%"struct.std::atomic.38" = type { %"struct.std::__atomic_base.39" }
%"struct.std::__atomic_base.39" = type { ptr }

@_ZN3tbb6detail2r18governor6theTLSE = external global %"class.tbb::detail::r1::basic_tls", align 4

; Function Attrs: mustprogress nounwind sspstrong uwtable
define linkonce_odr noundef i32 @_ZStanSt12memory_orderSt23__memory_order_modifier(i32 noundef %0, i32 noundef %1) #1 comdat {
  %3 = alloca i32, align 4
  %4 = alloca i32, align 4
  store i32 %0, ptr %3, align 4, !tbaa !102
  store i32 %1, ptr %4, align 4, !tbaa !334
  %5 = load i32, ptr %3, align 4, !tbaa !102
  %6 = load i32, ptr %4, align 4, !tbaa !334
  %7 = and i32 %5, %6
  ret i32 %7
}

; Function Attrs: alwaysinline mustprogress nounwind sspstrong uwtable
define linkonce_odr noundef ptr @_ZNKSt13__atomic_baseIPN3tbb6detail2r15arenaEE4loadESt12memory_order(ptr noundef nonnull align 8 dereferenceable(8) %0, i32 noundef %1) #5 comdat align 2 {
  %3 = alloca ptr, align 8
  %4 = alloca i32, align 4
  %5 = alloca i32, align 4
  %6 = alloca ptr, align 8
  store ptr %0, ptr %3, align 8, !tbaa !580
  store i32 %1, ptr %4, align 4, !tbaa !102
  %7 = load ptr, ptr %3, align 8
  call void @llvm.lifetime.start.p0(i64 4, ptr %5) #12
  %8 = load i32, ptr %4, align 4, !tbaa !102
  %9 = call noundef i32 @_ZStanSt12memory_orderSt23__memory_order_modifier(i32 noundef %8, i32 noundef 65535)
  store i32 %9, ptr %5, align 4, !tbaa !102
  br label %10

10:                                               ; preds = %2
  br label %11

11:                                               ; preds = %10
  br label %12

12:                                               ; preds = %11
  br label %13

13:                                               ; preds = %12
  br label %14

14:                                               ; preds = %13
  br label %15

15:                                               ; preds = %14
  %16 = getelementptr inbounds nuw %"struct.std::__atomic_base.39", ptr %7, i32 0, i32 0
  %17 = load i32, ptr %4, align 4, !tbaa !102
  switch i32 %17, label %18 [
    i32 1, label %20
    i32 2, label %20
    i32 5, label %22
  ]

18:                                               ; preds = %15
  %19 = load atomic i64, ptr %16 monotonic, align 8
  store i64 %19, ptr %6, align 8
  br label %24

20:                                               ; preds = %15, %15
  %21 = load atomic i64, ptr %16 acquire, align 8
  store i64 %21, ptr %6, align 8
  br label %24

22:                                               ; preds = %15
  %23 = load atomic i64, ptr %16 seq_cst, align 8
  store i64 %23, ptr %6, align 8
  br label %24

24:                                               ; preds = %22, %20, %18
  %25 = load ptr, ptr %6, align 8, !tbaa !43
  call void @llvm.lifetime.end.p0(i64 4, ptr %5) #12
  ret ptr %25
}

; Function Attrs: mustprogress nounwind sspstrong uwtable
define linkonce_odr noundef ptr @_ZN3tbb6detail2r19basic_tlsIPNS1_11thread_dataEE3getEv(ptr noundef nonnull align 4 dereferenceable(4) %0) #1 comdat align 2 {
  %2 = alloca ptr, align 8
  store ptr %0, ptr %2, align 8, !tbaa !353
  %3 = load ptr, ptr %2, align 8
  %4 = getelementptr inbounds nuw %"class.tbb::detail::r1::basic_tls", ptr %3, i32 0, i32 0
  %5 = load i32, ptr %4, align 4, !tbaa !355
  %6 = call ptr @pthread_getspecific(i32 noundef %5) #12
  ret ptr %6
}

; Function Attrs: inlinehint mustprogress nounwind sspstrong uwtable
define linkonce_odr noundef zeroext i1 @_ZN3tbb6detail2r111thread_data14is_attached_toEPNS1_5arenaE(ptr noundef nonnull align 8 dereferenceable(240) %0, ptr noundef %1) #6 comdat align 2 {
  %3 = alloca ptr, align 8
  %4 = alloca ptr, align 8
  store ptr %0, ptr %3, align 8, !tbaa !3
  store ptr %1, ptr %4, align 8, !tbaa !43
  %5 = load ptr, ptr %3, align 8
  %6 = getelementptr inbounds nuw %"class.tbb::detail::r1::thread_data", ptr %5, i32 0, i32 5
  %7 = load ptr, ptr %6, align 8, !tbaa !137
  %8 = load ptr, ptr %4, align 8, !tbaa !43
  %9 = icmp eq ptr %7, %8
  ret i1 %9
}

; Function Attrs: mustprogress nounwind sspstrong uwtable
define linkonce_odr noundef ptr @_ZNKSt6atomicIPN3tbb6detail2r15arenaEE4loadESt12memory_order(ptr noundef nonnull align 8 dereferenceable(8) %0, i32 noundef %1) #1 comdat align 2 {
  %3 = alloca ptr, align 8
  %4 = alloca i32, align 4
  store ptr %0, ptr %3, align 8, !tbaa !264
  store i32 %1, ptr %4, align 4, !tbaa !102
  %5 = load ptr, ptr %3, align 8
  %6 = getelementptr inbounds nuw %"struct.std::atomic.38", ptr %5, i32 0, i32 0
  %7 = load i32, ptr %4, align 4, !tbaa !102
  %8 = call noundef ptr @_ZNKSt13__atomic_baseIPN3tbb6detail2r15arenaEE4loadESt12memory_order(ptr noundef nonnull align 8 dereferenceable(8) %6, i32 noundef %7) #12
  ret ptr %8
}

; Function Attrs: mustprogress nounwind sspstrong uwtable
define linkonce_odr noundef ptr @_ZN3tbb6detail2r18governor30get_thread_data_if_initializedEv() #1 comdat align 2 {
  %1 = call noundef ptr @_ZN3tbb6detail2r19basic_tlsIPNS1_11thread_dataEE3getEv(ptr noundef nonnull align 4 dereferenceable(4) @_ZN3tbb6detail2r18governor6theTLSE)
  ret ptr %1
}

; Function Attrs: mustprogress sspstrong uwtable
define noundef zeroext i16 @_ZN3tbb6detail2r115task_arena_impl14execution_slotERKNS0_2d115task_arena_baseE(ptr noundef nonnull align 8 dereferenceable(48) %0) #2 align 2 {
  %2 = alloca i16, align 2
  %3 = alloca ptr, align 8
  %4 = alloca ptr, align 8
  %5 = alloca i32, align 4
  store ptr %0, ptr %3, align 8, !tbaa !237
  call void @llvm.lifetime.start.p0(i64 8, ptr %4) #12
  %6 = call noundef ptr @_ZN3tbb6detail2r18governor30get_thread_data_if_initializedEv()
  store ptr %6, ptr %4, align 8, !tbaa !3
  %7 = load ptr, ptr %4, align 8, !tbaa !3
  %8 = icmp ne ptr %7, null
  br i1 %8, label %9, label %19

9:                                                ; preds = %1
  %10 = load ptr, ptr %4, align 8, !tbaa !3
  %11 = load ptr, ptr %3, align 8, !tbaa !237
  %12 = getelementptr inbounds nuw %"class.tbb::detail::d1::task_arena_base", ptr %11, i32 0, i32 2
  %13 = call noundef ptr @_ZNKSt6atomicIPN3tbb6detail2r15arenaEE4loadESt12memory_order(ptr noundef nonnull align 8 dereferenceable(8) %12, i32 noundef 0) #12
  %14 = call noundef zeroext i1 @_ZN3tbb6detail2r111thread_data14is_attached_toEPNS1_5arenaE(ptr noundef nonnull align 8 dereferenceable(240) %10, ptr noundef %13)
  br i1 %14, label %15, label %19

15:                                               ; preds = %9
  %16 = load ptr, ptr %4, align 8, !tbaa !3
  %17 = getelementptr inbounds nuw %"class.tbb::detail::r1::thread_data", ptr %16, i32 0, i32 1
  %18 = load i16, ptr %17, align 8, !tbaa !123
  store i16 %18, ptr %2, align 2
  store i32 1, ptr %5, align 4
  br label %20

19:                                               ; preds = %9, %1
  store i16 -1, ptr %2, align 2
  store i32 1, ptr %5, align 4
  br label %20

20:                                               ; preds = %19, %15
  call void @llvm.lifetime.end.p0(i64 8, ptr %4) #12
  %21 = load i16, ptr %2, align 2
  ret i16 %21
}